; Function Attrs: nounwind uwtable
define internal i32 @GENERIC_EnumerateDirectory(ptr noundef readonly captures(none) %0, ptr noundef %1, ptr noundef %2) #0 {
  %4 = load i64, ptr %0, align 8
  %5 = getelementptr inbounds nuw i8, ptr %1, i64 %4
  %6 = getelementptr inbounds nuw i8, ptr %0, i64 8
  %7 = load ptr, ptr %6, align 8
  %8 = getelementptr inbounds nuw i8, ptr %0, i64 16
  %9 = load ptr, ptr %8, align 8
  %10 = tail call i32 %7(ptr noundef %9, ptr noundef %5, ptr noundef %2) #4
  ret i32 %10
}